; Function Attrs: mustprogress nofree norecurse nosync nounwind willreturn memory(read, argmem: readwrite, inaccessiblemem: none) uwtable
define dso_local void @acct_policy_set_qos_order(ptr noundef readonly captures(none) %0, ptr noundef captures(none) initializes((0, 8)) %1, ptr noundef writeonly captures(none) initializes((0, 8)) %2) local_unnamed_addr #6 {
  store ptr null, ptr %1, align 8
  store ptr null, ptr %2, align 8
  %4 = getelementptr inbounds nuw i8, ptr %0, i64 768
  %5 = load ptr, ptr %4, align 8
  %.not = icmp eq ptr %5, null
  %6 = getelementptr inbounds nuw i8, ptr %0, i64 672
  %7 = load ptr, ptr %6, align 8
  %.not27 = icmp eq ptr %7, null
  br i1 %.not, label %24, label %8

8:                                                ; preds = %3
  br i1 %.not27, label %23, label %9

9:                                                ; preds = %8
  %10 = getelementptr inbounds nuw i8, ptr %7, i64 296
  %11 = load ptr, ptr %10, align 8
  %.not30 = icmp eq ptr %11, null
  br i1 %.not30, label %23, label %12

12:                                               ; preds = %9
  %13 = getelementptr inbounds nuw i8, ptr %5, i64 20
  %14 = load i32, ptr %13, align 4
  %15 = and i32 %14, 128
  %.not31 = icmp eq i32 %15, 0
  br i1 %.not31, label %19, label %16

16:                                               ; preds = %12
  store ptr %5, ptr %1, align 8
  %17 = load ptr, ptr %6, align 8
  %18 = getelementptr inbounds nuw i8, ptr %17, i64 296
  br label %20

19:                                               ; preds = %12
  store ptr %11, ptr %1, align 8
  br label %20

20:                                               ; preds = %19, %16
  %storemerge.in = phi ptr [ %4, %19 ], [ %18, %16 ]
  %storemerge = load ptr, ptr %storemerge.in, align 8
  store ptr %storemerge, ptr %2, align 8
  %21 = load ptr, ptr %1, align 8
  %22 = icmp eq ptr %21, %storemerge
  %spec.store.select = select i1 %22, ptr null, ptr %storemerge
  store ptr %spec.store.select, ptr %2, align 8
  br label %29

23:                                               ; preds = %9, %8
  store ptr %5, ptr %1, align 8
  br label %29

24:                                               ; preds = %3
  br i1 %.not27, label %29, label %25

25:                                               ; preds = %24
  %26 = getelementptr inbounds nuw i8, ptr %7, i64 296
  %27 = load ptr, ptr %26, align 8
  %.not28 = icmp eq ptr %27, null
  br i1 %.not28, label %29, label %28

28:                                               ; preds = %25
  store ptr %27, ptr %1, align 8
  br label %29

29:                                               ; preds = %20, %24, %25, %28, %23
  ret void
}